target datalayout = "e-m:e-p270:32:32-p271:32:32-p272:64:64-i64:64-i128:128-f80:128-n8:16:32:64-S128"
target triple = "x86_64-pc-linux-gnu"

%struct.ImGuiPlotArrayGetterData = type <{ ptr, i32, [4 x i8] }>

; Function Attrs: mustprogress nounwind uwtable
define internal noundef float @_ZL16Plot_ArrayGetterPvi(ptr noundef %0, i32 noundef %1) #4 {
  %3 = alloca ptr, align 8
  %4 = alloca i32, align 4
  %5 = alloca ptr, align 8
  %6 = alloca float, align 4
  store ptr %0, ptr %3, align 8, !tbaa !255
  store i32 %1, ptr %4, align 4, !tbaa !9
  call void @llvm.lifetime.start.p0(i64 8, ptr %5) #17
  %7 = load ptr, ptr %3, align 8, !tbaa !255
  store ptr %7, ptr %5, align 8, !tbaa !747
  call void @llvm.lifetime.start.p0(i64 4, ptr %6) #17
  %8 = load ptr, ptr %5, align 8, !tbaa !747
  %9 = getelementptr inbounds nuw %struct.ImGuiPlotArrayGetterData, ptr %8, i32 0, i32 0
  %10 = load ptr, ptr %9, align 8, !tbaa !749
  %11 = load i32, ptr %4, align 4, !tbaa !9
  %12 = sext i32 %11 to i64
  %13 = load ptr, ptr %5, align 8, !tbaa !747
  %14 = getelementptr inbounds nuw %struct.ImGuiPlotArrayGetterData, ptr %13, i32 0, i32 1
  %15 = load i32, ptr %14, align 8, !tbaa !751
  %16 = sext i32 %15 to i64
  %17 = mul i64 %12, %16
  %18 = getelementptr inbounds nuw i8, ptr %10, i64 %17
  %19 = load float, ptr %18, align 4, !tbaa !66
  store float %19, ptr %6, align 4, !tbaa !66
  %20 = load float, ptr %6, align 4, !tbaa !66
  call void @llvm.lifetime.end.p0(i64 4, ptr %6) #17
  call void @llvm.lifetime.end.p0(i64 8, ptr %5) #17
  ret float %20
}