; Function Attrs: mustprogress nofree norecurse nosync nounwind willreturn memory(read, inaccessiblemem: none) uwtable
define internal noundef float @_ZL16Plot_ArrayGetterPvi(ptr noundef readonly captures(none) %0, i32 noundef %1) #19 {
  %3 = load ptr, ptr %0, align 8, !tbaa !659
  %4 = sext i32 %1 to i64
  %5 = getelementptr inbounds nuw i8, ptr %0, i64 8
  %6 = load i32, ptr %5, align 8, !tbaa !661
  %7 = sext i32 %6 to i64
  %8 = mul nsw i64 %7, %4
  %9 = getelementptr inbounds nuw i8, ptr %3, i64 %8
  %10 = load float, ptr %9, align 4, !tbaa !190
  ret float %10
}